target datalayout = "e-m:e-p270:32:32-p271:32:32-p272:64:64-i64:64-i128:128-f80:128-n8:16:32:64-S128"
target triple = "x86_64-unknown-linux-gnu"

%struct.mutex_prof_data_t = type { %struct.nstime_t, %struct.nstime_t, i64, i64, i32, %struct.atomic_u32_t, i64, ptr, i64 }
%struct.nstime_t = type { i64 }
%struct.atomic_u32_t = type { i32 }
%struct.atomic_zu_t = type { i64 }
%struct.ctl_arena_s = type { i32, i8, %struct.anon.1, i32, ptr, i64, i64, i64, i64, i64, ptr }
%struct.anon.1 = type { ptr, ptr }
%struct.ctl_arenas_s = type { i64, i32, %struct.anon.2, [4097 x ptr] }
%struct.anon.2 = type { ptr }
%struct.container_s = type { %struct.ctl_arena_s, %struct.ctl_arena_stats_s }
%struct.ctl_arena_stats_s = type { %struct.arena_stats_s, i64, i64, i64, i64, i64, i64, [39 x %struct.bin_stats_data_s], [196 x %struct.arena_stats_large_s], [199 x %struct.pac_estats_s], %struct.hpa_shard_stats_s, %struct.sec_stats_s }
%struct.arena_stats_s = type { i64, i64, i64, i64, %struct.atomic_zu_t, i64, i64, i64, i64, i64, i64, %struct.pa_shard_stats_s, i64, i64, [12 x %struct.mutex_prof_data_t], [196 x %struct.arena_stats_large_s], %struct.nstime_t }
%struct.pa_shard_stats_s = type { i64, %struct.pac_stats_s }
%struct.pac_stats_s = type { %struct.pac_decay_stats_s, %struct.pac_decay_stats_s, i64, %struct.atomic_zu_t, %struct.atomic_zu_t }
%struct.pac_decay_stats_s = type { %struct.locked_u64_s, %struct.locked_u64_s, %struct.locked_u64_s }
%struct.locked_u64_s = type { %struct.atomic_u64_t }
%struct.atomic_u64_t = type { i64 }
%struct.bin_stats_data_s = type { %struct.bin_stats_s, %struct.mutex_prof_data_t }
%struct.bin_stats_s = type { i64, i64, i64, i64, i64, i64, i64, i64, i64, i64 }
%struct.arena_stats_large_s = type { %struct.locked_u64_s, %struct.locked_u64_s, %struct.locked_u64_s, %struct.locked_u64_s, %struct.locked_u64_s, i64 }
%struct.pac_estats_s = type { i64, i64, i64, i64, i64, i64 }
%struct.hpa_shard_stats_s = type { %struct.psset_stats_s, %struct.hpa_shard_nonderived_stats_s }
%struct.psset_stats_s = type { [64 x [2 x %struct.psset_bin_stats_s]], [2 x %struct.psset_bin_stats_s], [2 x %struct.psset_bin_stats_s] }
%struct.psset_bin_stats_s = type { i64, i64, i64 }
%struct.hpa_shard_nonderived_stats_s = type { i64, i64, i64, i64 }
%struct.sec_stats_s = type { i64 }

@ctl_arenas = internal global ptr null, align 8

; Function Attrs: nounwind uwtable
define internal i32 @arenas_i2a_impl(i64 noundef %i, i1 noundef zeroext %compat, i1 noundef zeroext %validate) #0 {
entry:
  %i.addr = alloca i64, align 8
  %compat.addr = alloca i8, align 1
  %validate.addr = alloca i8, align 1
  %a = alloca i32, align 4
  store i64 %i, ptr %i.addr, align 8
  %frombool = zext i1 %compat to i8
  store i8 %frombool, ptr %compat.addr, align 1
  %frombool1 = zext i1 %validate to i8
  store i8 %frombool1, ptr %validate.addr, align 1
  %0 = load i64, ptr %i.addr, align 8
  switch i64 %0, label %sw.default [
    i64 4096, label %sw.bb
    i64 4097, label %sw.bb2
  ]

sw.bb:                                            ; preds = %entry
  store i32 0, ptr %a, align 4
  br label %sw.epilog

sw.bb2:                                           ; preds = %entry
  store i32 1, ptr %a, align 4
  br label %sw.epilog

sw.default:                                       ; preds = %entry
  %1 = load i8, ptr %compat.addr, align 1
  %tobool = trunc i8 %1 to i1
  br i1 %tobool, label %land.lhs.true, label %if.else

land.lhs.true:                                    ; preds = %sw.default
  %2 = load i64, ptr %i.addr, align 8
  %3 = load ptr, ptr @ctl_arenas, align 8
  %narenas = getelementptr inbounds %struct.ctl_arenas_s, ptr %3, i32 0, i32 1
  %4 = load i32, ptr %narenas, align 8
  %conv = zext i32 %4 to i64
  %cmp = icmp eq i64 %2, %conv
  br i1 %cmp, label %if.then, label %if.else

if.then:                                          ; preds = %land.lhs.true
  store i32 0, ptr %a, align 4
  br label %if.end14

if.else:                                          ; preds = %land.lhs.true, %sw.default
  %5 = load i8, ptr %validate.addr, align 1
  %tobool4 = trunc i8 %5 to i1
  br i1 %tobool4, label %land.lhs.true6, label %if.else12

land.lhs.true6:                                   ; preds = %if.else
  %6 = load i64, ptr %i.addr, align 8
  %7 = load ptr, ptr @ctl_arenas, align 8
  %narenas7 = getelementptr inbounds %struct.ctl_arenas_s, ptr %7, i32 0, i32 1
  %8 = load i32, ptr %narenas7, align 8
  %conv8 = zext i32 %8 to i64
  %cmp9 = icmp uge i64 %6, %conv8
  br i1 %cmp9, label %if.then11, label %if.else12

if.then11:                                        ; preds = %land.lhs.true6
  store i32 -1, ptr %a, align 4
  br label %if.end

if.else12:                                        ; preds = %land.lhs.true6, %if.else
  br label %do.body

do.body:                                          ; preds = %if.else12
  br label %do.end

do.end:                                           ; preds = %do.body
  %9 = load i64, ptr %i.addr, align 8
  %conv13 = trunc i64 %9 to i32
  %add = add i32 %conv13, 2
  store i32 %add, ptr %a, align 4
  br label %if.end

if.end:                                           ; preds = %do.end, %if.then11
  br label %if.end14

if.end14:                                         ; preds = %if.end, %if.then
  br label %sw.epilog

sw.epilog:                                        ; preds = %if.end14, %sw.bb2, %sw.bb
  %10 = load i32, ptr %a, align 4
  ret i32 %10
}

; Function Attrs: nounwind uwtable
define internal ptr @arenas_i_impl(ptr noundef %tsd, i64 noundef %i, i1 noundef zeroext %compat, i1 noundef zeroext %init) #0 {
entry:
  %tsd.addr.i = alloca ptr, align 8
  %retval = alloca ptr, align 8
  %tsd.addr = alloca ptr, align 8
  %i.addr = alloca i64, align 8
  %compat.addr = alloca i8, align 1
  %init.addr = alloca i8, align 1
  %ret = alloca ptr, align 8
  %cont = alloca ptr, align 8
  store ptr %tsd, ptr %tsd.addr, align 8
  store i64 %i, ptr %i.addr, align 8
  %frombool = zext i1 %compat to i8
  store i8 %frombool, ptr %compat.addr, align 1
  %frombool1 = zext i1 %init to i8
  store i8 %frombool1, ptr %init.addr, align 1
  br label %do.body

do.body:                                          ; preds = %entry
  br label %do.end

do.end:                                           ; preds = %do.body
  %0 = load ptr, ptr @ctl_arenas, align 8
  %arenas = getelementptr inbounds %struct.ctl_arenas_s, ptr %0, i32 0, i32 3
  %1 = load i64, ptr %i.addr, align 8
  %2 = load i8, ptr %compat.addr, align 1
  %tobool = trunc i8 %2 to i1
  %call = call i32 @arenas_i2a_impl(i64 noundef %1, i1 noundef zeroext %tobool, i1 noundef zeroext false)
  %idxprom = zext i32 %call to i64
  %arrayidx = getelementptr inbounds [4097 x ptr], ptr %arenas, i64 0, i64 %idxprom
  %3 = load ptr, ptr %arrayidx, align 8
  store ptr %3, ptr %ret, align 8
  %4 = load i8, ptr %init.addr, align 1
  %tobool2 = trunc i8 %4 to i1
  br i1 %tobool2, label %land.lhs.true, label %if.end14

land.lhs.true:                                    ; preds = %do.end
  %5 = load ptr, ptr %ret, align 8
  %cmp = icmp eq ptr %5, null
  br i1 %cmp, label %if.then, label %if.end14

if.then:                                          ; preds = %land.lhs.true
  %6 = load ptr, ptr %tsd.addr, align 8
  store ptr %6, ptr %tsd.addr.i, align 8
  %7 = load ptr, ptr %tsd.addr.i, align 8
  %call4 = call ptr @b0get()
  %call5 = call ptr @base_alloc(ptr noundef %7, ptr noundef %call4, i64 noundef 38288, i64 noundef 8)
  store ptr %call5, ptr %cont, align 8
  %8 = load ptr, ptr %cont, align 8
  %cmp6 = icmp eq ptr %8, null
  br i1 %cmp6, label %if.then7, label %if.end

if.then7:                                         ; preds = %if.then
  store ptr null, ptr %retval, align 8
  br label %return

if.end:                                           ; preds = %if.then
  %9 = load ptr, ptr %cont, align 8
  %ctl_arena = getelementptr inbounds %struct.container_s, ptr %9, i32 0, i32 0
  store ptr %ctl_arena, ptr %ret, align 8
  %10 = load ptr, ptr %cont, align 8
  %astats = getelementptr inbounds %struct.container_s, ptr %10, i32 0, i32 1
  %11 = load ptr, ptr %ret, align 8
  %astats8 = getelementptr inbounds %struct.ctl_arena_s, ptr %11, i32 0, i32 10
  store ptr %astats, ptr %astats8, align 8
  %12 = load i64, ptr %i.addr, align 8
  %conv = trunc i64 %12 to i32
  %13 = load ptr, ptr %ret, align 8
  %arena_ind = getelementptr inbounds %struct.ctl_arena_s, ptr %13, i32 0, i32 0
  store i32 %conv, ptr %arena_ind, align 8
  %14 = load ptr, ptr %ret, align 8
  %15 = load ptr, ptr @ctl_arenas, align 8
  %arenas9 = getelementptr inbounds %struct.ctl_arenas_s, ptr %15, i32 0, i32 3
  %16 = load i64, ptr %i.addr, align 8
  %17 = load i8, ptr %compat.addr, align 1
  %tobool10 = trunc i8 %17 to i1
  %call11 = call i32 @arenas_i2a_impl(i64 noundef %16, i1 noundef zeroext %tobool10, i1 noundef zeroext false)
  %idxprom12 = zext i32 %call11 to i64
  %arrayidx13 = getelementptr inbounds [4097 x ptr], ptr %arenas9, i64 0, i64 %idxprom12
  store ptr %14, ptr %arrayidx13, align 8
  br label %if.end14

if.end14:                                         ; preds = %if.end, %land.lhs.true, %do.end
  br label %do.body15

do.body15:                                        ; preds = %if.end14
  br label %do.end16

do.end16:                                         ; preds = %do.body15
  %18 = load ptr, ptr %ret, align 8
  store ptr %18, ptr %retval, align 8
  br label %return

return:                                           ; preds = %do.end16, %if.then7
  %19 = load ptr, ptr %retval, align 8
  ret ptr %19
}

; Function Attrs: nounwind uwtable
define internal i32 @ctl_arena_init(ptr noundef %tsd, ptr noundef %config) #0 {
entry:
  %tsd.addr.i = alloca ptr, align 8
  %retval = alloca i32, align 4
  %tsd.addr = alloca ptr, align 8
  %config.addr = alloca ptr, align 8
  %arena_ind = alloca i32, align 4
  %ctl_arena = alloca ptr, align 8
  store ptr %tsd, ptr %tsd.addr, align 8
  store ptr %config, ptr %config.addr, align 8
  %0 = load ptr, ptr @ctl_arenas, align 8
  %destroyed = getelementptr inbounds %struct.ctl_arenas_s, ptr %0, i32 0, i32 2
  %qlh_first = getelementptr inbounds %struct.anon.2, ptr %destroyed, i32 0, i32 0
  %1 = load ptr, ptr %qlh_first, align 8
  %cmp = icmp eq ptr %1, null
  br i1 %cmp, label %cond.true, label %cond.false

cond.true:                                        ; preds = %entry
  br label %cond.end

cond.false:                                       ; preds = %entry
  %2 = load ptr, ptr @ctl_arenas, align 8
  %destroyed1 = getelementptr inbounds %struct.ctl_arenas_s, ptr %2, i32 0, i32 2
  %qlh_first2 = getelementptr inbounds %struct.anon.2, ptr %destroyed1, i32 0, i32 0
  %3 = load ptr, ptr %qlh_first2, align 8
  %destroyed_link = getelementptr inbounds %struct.ctl_arena_s, ptr %3, i32 0, i32 2
  %qre_prev = getelementptr inbounds %struct.anon.1, ptr %destroyed_link, i32 0, i32 1
  %4 = load ptr, ptr %qre_prev, align 8
  br label %cond.end

cond.end:                                         ; preds = %cond.false, %cond.true
  %cond = phi ptr [ null, %cond.true ], [ %4, %cond.false ]
  store ptr %cond, ptr %ctl_arena, align 8
  %cmp3 = icmp ne ptr %cond, null
  br i1 %cmp3, label %if.then, label %if.else57

if.then:                                          ; preds = %cond.end
  br label %do.body

do.body:                                          ; preds = %if.then
  %5 = load ptr, ptr @ctl_arenas, align 8
  %destroyed4 = getelementptr inbounds %struct.ctl_arenas_s, ptr %5, i32 0, i32 2
  %qlh_first5 = getelementptr inbounds %struct.anon.2, ptr %destroyed4, i32 0, i32 0
  %6 = load ptr, ptr %qlh_first5, align 8
  %7 = load ptr, ptr %ctl_arena, align 8
  %cmp6 = icmp eq ptr %6, %7
  br i1 %cmp6, label %if.then7, label %if.end

if.then7:                                         ; preds = %do.body
  %8 = load ptr, ptr @ctl_arenas, align 8
  %destroyed8 = getelementptr inbounds %struct.ctl_arenas_s, ptr %8, i32 0, i32 2
  %qlh_first9 = getelementptr inbounds %struct.anon.2, ptr %destroyed8, i32 0, i32 0
  %9 = load ptr, ptr %qlh_first9, align 8
  %destroyed_link10 = getelementptr inbounds %struct.ctl_arena_s, ptr %9, i32 0, i32 2
  %qre_next = getelementptr inbounds %struct.anon.1, ptr %destroyed_link10, i32 0, i32 0
  %10 = load ptr, ptr %qre_next, align 8
  %11 = load ptr, ptr @ctl_arenas, align 8
  %destroyed11 = getelementptr inbounds %struct.ctl_arenas_s, ptr %11, i32 0, i32 2
  %qlh_first12 = getelementptr inbounds %struct.anon.2, ptr %destroyed11, i32 0, i32 0
  store ptr %10, ptr %qlh_first12, align 8
  br label %if.end

if.end:                                           ; preds = %if.then7, %do.body
  %12 = load ptr, ptr @ctl_arenas, align 8
  %destroyed13 = getelementptr inbounds %struct.ctl_arenas_s, ptr %12, i32 0, i32 2
  %qlh_first14 = getelementptr inbounds %struct.anon.2, ptr %destroyed13, i32 0, i32 0
  %13 = load ptr, ptr %qlh_first14, align 8
  %14 = load ptr, ptr %ctl_arena, align 8
  %cmp15 = icmp ne ptr %13, %14
  br i1 %cmp15, label %if.then16, label %if.else

if.then16:                                        ; preds = %if.end
  br label %do.body17

do.body17:                                        ; preds = %if.then16
  %15 = load ptr, ptr %ctl_arena, align 8
  %destroyed_link18 = getelementptr inbounds %struct.ctl_arena_s, ptr %15, i32 0, i32 2
  %qre_next19 = getelementptr inbounds %struct.anon.1, ptr %destroyed_link18, i32 0, i32 0
  %16 = load ptr, ptr %qre_next19, align 8
  %destroyed_link20 = getelementptr inbounds %struct.ctl_arena_s, ptr %16, i32 0, i32 2
  %qre_prev21 = getelementptr inbounds %struct.anon.1, ptr %destroyed_link20, i32 0, i32 1
  %17 = load ptr, ptr %qre_prev21, align 8
  %18 = load ptr, ptr %ctl_arena, align 8
  %destroyed_link22 = getelementptr inbounds %struct.ctl_arena_s, ptr %18, i32 0, i32 2
  %qre_prev23 = getelementptr inbounds %struct.anon.1, ptr %destroyed_link22, i32 0, i32 1
  %19 = load ptr, ptr %qre_prev23, align 8
  %destroyed_link24 = getelementptr inbounds %struct.ctl_arena_s, ptr %19, i32 0, i32 2
  %qre_next25 = getelementptr inbounds %struct.anon.1, ptr %destroyed_link24, i32 0, i32 0
  store ptr %17, ptr %qre_next25, align 8
  %20 = load ptr, ptr %ctl_arena, align 8
  %destroyed_link26 = getelementptr inbounds %struct.ctl_arena_s, ptr %20, i32 0, i32 2
  %qre_prev27 = getelementptr inbounds %struct.anon.1, ptr %destroyed_link26, i32 0, i32 1
  %21 = load ptr, ptr %qre_prev27, align 8
  %22 = load ptr, ptr %ctl_arena, align 8
  %destroyed_link28 = getelementptr inbounds %struct.ctl_arena_s, ptr %22, i32 0, i32 2
  %qre_next29 = getelementptr inbounds %struct.anon.1, ptr %destroyed_link28, i32 0, i32 0
  %23 = load ptr, ptr %qre_next29, align 8
  %destroyed_link30 = getelementptr inbounds %struct.ctl_arena_s, ptr %23, i32 0, i32 2
  %qre_prev31 = getelementptr inbounds %struct.anon.1, ptr %destroyed_link30, i32 0, i32 1
  store ptr %21, ptr %qre_prev31, align 8
  %24 = load ptr, ptr %ctl_arena, align 8
  %destroyed_link32 = getelementptr inbounds %struct.ctl_arena_s, ptr %24, i32 0, i32 2
  %qre_prev33 = getelementptr inbounds %struct.anon.1, ptr %destroyed_link32, i32 0, i32 1
  %25 = load ptr, ptr %qre_prev33, align 8
  %destroyed_link34 = getelementptr inbounds %struct.ctl_arena_s, ptr %25, i32 0, i32 2
  %qre_next35 = getelementptr inbounds %struct.anon.1, ptr %destroyed_link34, i32 0, i32 0
  %26 = load ptr, ptr %qre_next35, align 8
  %27 = load ptr, ptr %ctl_arena, align 8
  %destroyed_link36 = getelementptr inbounds %struct.ctl_arena_s, ptr %27, i32 0, i32 2
  %qre_prev37 = getelementptr inbounds %struct.anon.1, ptr %destroyed_link36, i32 0, i32 1
  store ptr %26, ptr %qre_prev37, align 8
  %28 = load ptr, ptr %ctl_arena, align 8
  %destroyed_link38 = getelementptr inbounds %struct.ctl_arena_s, ptr %28, i32 0, i32 2
  %qre_next39 = getelementptr inbounds %struct.anon.1, ptr %destroyed_link38, i32 0, i32 0
  %29 = load ptr, ptr %qre_next39, align 8
  %30 = load ptr, ptr %ctl_arena, align 8
  %destroyed_link40 = getelementptr inbounds %struct.ctl_arena_s, ptr %30, i32 0, i32 2
  %qre_next41 = getelementptr inbounds %struct.anon.1, ptr %destroyed_link40, i32 0, i32 0
  %31 = load ptr, ptr %qre_next41, align 8
  %destroyed_link42 = getelementptr inbounds %struct.ctl_arena_s, ptr %31, i32 0, i32 2
  %qre_prev43 = getelementptr inbounds %struct.anon.1, ptr %destroyed_link42, i32 0, i32 1
  %32 = load ptr, ptr %qre_prev43, align 8
  %destroyed_link44 = getelementptr inbounds %struct.ctl_arena_s, ptr %32, i32 0, i32 2
  %qre_next45 = getelementptr inbounds %struct.anon.1, ptr %destroyed_link44, i32 0, i32 0
  store ptr %29, ptr %qre_next45, align 8
  %33 = load ptr, ptr %ctl_arena, align 8
  %34 = load ptr, ptr %ctl_arena, align 8
  %destroyed_link46 = getelementptr inbounds %struct.ctl_arena_s, ptr %34, i32 0, i32 2
  %qre_prev47 = getelementptr inbounds %struct.anon.1, ptr %destroyed_link46, i32 0, i32 1
  %35 = load ptr, ptr %qre_prev47, align 8
  %destroyed_link48 = getelementptr inbounds %struct.ctl_arena_s, ptr %35, i32 0, i32 2
  %qre_next49 = getelementptr inbounds %struct.anon.1, ptr %destroyed_link48, i32 0, i32 0
  store ptr %33, ptr %qre_next49, align 8
  br label %do.end

do.end:                                           ; preds = %do.body17
  br label %if.end54

if.else:                                          ; preds = %if.end
  br label %do.body50

do.body50:                                        ; preds = %if.else
  %36 = load ptr, ptr @ctl_arenas, align 8
  %destroyed51 = getelementptr inbounds %struct.ctl_arenas_s, ptr %36, i32 0, i32 2
  %qlh_first52 = getelementptr inbounds %struct.anon.2, ptr %destroyed51, i32 0, i32 0
  store ptr null, ptr %qlh_first52, align 8
  br label %do.end53

do.end53:                                         ; preds = %do.body50
  br label %if.end54

if.end54:                                         ; preds = %do.end53, %do.end
  br label %do.end55

do.end55:                                         ; preds = %if.end54
  %37 = load ptr, ptr %ctl_arena, align 8
  %arena_ind56 = getelementptr inbounds %struct.ctl_arena_s, ptr %37, i32 0, i32 0
  %38 = load i32, ptr %arena_ind56, align 8
  store i32 %38, ptr %arena_ind, align 4
  br label %if.end58

if.else57:                                        ; preds = %cond.end
  %39 = load ptr, ptr @ctl_arenas, align 8
  %narenas = getelementptr inbounds %struct.ctl_arenas_s, ptr %39, i32 0, i32 1
  %40 = load i32, ptr %narenas, align 8
  store i32 %40, ptr %arena_ind, align 4
  br label %if.end58

if.end58:                                         ; preds = %if.else57, %do.end55
  %41 = load ptr, ptr %tsd.addr, align 8
  %42 = load i32, ptr %arena_ind, align 4
  %conv = zext i32 %42 to i64
  %call = call ptr @arenas_i_impl(ptr noundef %41, i64 noundef %conv, i1 noundef zeroext false, i1 noundef zeroext true)
  %cmp59 = icmp eq ptr %call, null
  br i1 %cmp59, label %if.then61, label %if.end62

if.then61:                                        ; preds = %if.end58
  store i32 -1, ptr %retval, align 4
  br label %return

if.end62:                                         ; preds = %if.end58
  %43 = load ptr, ptr %tsd.addr, align 8
  store ptr %43, ptr %tsd.addr.i, align 8
  %44 = load ptr, ptr %tsd.addr.i, align 8
  %45 = load i32, ptr %arena_ind, align 4
  %46 = load ptr, ptr %config.addr, align 8
  %call64 = call ptr @arena_init(ptr noundef %44, i32 noundef %45, ptr noundef %46)
  %cmp65 = icmp eq ptr %call64, null
  br i1 %cmp65, label %if.then67, label %if.end68

if.then67:                                        ; preds = %if.end62
  store i32 -1, ptr %retval, align 4
  br label %return

if.end68:                                         ; preds = %if.end62
  %47 = load i32, ptr %arena_ind, align 4
  %48 = load ptr, ptr @ctl_arenas, align 8
  %narenas69 = getelementptr inbounds %struct.ctl_arenas_s, ptr %48, i32 0, i32 1
  %49 = load i32, ptr %narenas69, align 8
  %cmp70 = icmp eq i32 %47, %49
  br i1 %cmp70, label %if.then72, label %if.end74

if.then72:                                        ; preds = %if.end68
  %50 = load ptr, ptr @ctl_arenas, align 8
  %narenas73 = getelementptr inbounds %struct.ctl_arenas_s, ptr %50, i32 0, i32 1
  %51 = load i32, ptr %narenas73, align 8
  %inc = add i32 %51, 1
  store i32 %inc, ptr %narenas73, align 8
  br label %if.end74

if.end74:                                         ; preds = %if.then72, %if.end68
  %52 = load i32, ptr %arena_ind, align 4
  store i32 %52, ptr %retval, align 4
  br label %return

return:                                           ; preds = %if.end74, %if.then67, %if.then61
  %53 = load i32, ptr %retval, align 4
  ret i32 %53
}