; Function Attrs: nounwind uwtable
define internal fastcc noundef i32 @ctl_arena_init(ptr noundef %tsd, ptr noundef %config) unnamed_addr #0 {
entry:
  %0 = load ptr, ptr @ctl_arenas, align 8
  %destroyed = getelementptr inbounds i8, ptr %0, i64 16
  %1 = load ptr, ptr %destroyed, align 8
  %cmp = icmp eq ptr %1, null
  br i1 %cmp, label %if.else57, label %cond.end

cond.end:                                         ; preds = %entry
  %qre_prev = getelementptr inbounds i8, ptr %1, i64 16
  %2 = load ptr, ptr %qre_prev, align 8
  %cmp3.not = icmp eq ptr %2, null
  br i1 %cmp3.not, label %if.else57, label %do.body

do.body:                                          ; preds = %cond.end
  %cmp6 = icmp eq ptr %1, %2
  br i1 %cmp6, label %if.then7, label %if.end

if.then7:                                         ; preds = %do.body
  %destroyed_link10 = getelementptr inbounds i8, ptr %1, i64 8
  %3 = load ptr, ptr %destroyed_link10, align 8
  store ptr %3, ptr %destroyed, align 8
  br label %if.end

if.end:                                           ; preds = %if.then7, %do.body
  %4 = phi ptr [ %3, %if.then7 ], [ %1, %do.body ]
  %cmp15.not = icmp eq ptr %4, %2
  br i1 %cmp15.not, label %do.body50, label %do.body17

do.body17:                                        ; preds = %if.end
  %destroyed_link18 = getelementptr inbounds i8, ptr %2, i64 8
  %5 = load ptr, ptr %destroyed_link18, align 8
  %qre_prev21 = getelementptr inbounds i8, ptr %5, i64 16
  %6 = load ptr, ptr %qre_prev21, align 8
  %qre_prev23 = getelementptr inbounds i8, ptr %2, i64 16
  %7 = load ptr, ptr %qre_prev23, align 8
  %destroyed_link24 = getelementptr inbounds i8, ptr %7, i64 8
  store ptr %6, ptr %destroyed_link24, align 8
  %8 = load ptr, ptr %qre_prev23, align 8
  %9 = load ptr, ptr %destroyed_link18, align 8
  %qre_prev31 = getelementptr inbounds i8, ptr %9, i64 16
  store ptr %8, ptr %qre_prev31, align 8
  %destroyed_link34 = getelementptr inbounds i8, ptr %8, i64 8
  %10 = load ptr, ptr %destroyed_link34, align 8
  store ptr %10, ptr %qre_prev23, align 8
  %11 = load ptr, ptr %destroyed_link18, align 8
  %qre_prev43 = getelementptr inbounds i8, ptr %11, i64 16
  %12 = load ptr, ptr %qre_prev43, align 8
  %destroyed_link44 = getelementptr inbounds i8, ptr %12, i64 8
  store ptr %11, ptr %destroyed_link44, align 8
  %13 = load ptr, ptr %qre_prev23, align 8
  %destroyed_link48 = getelementptr inbounds i8, ptr %13, i64 8
  store ptr %2, ptr %destroyed_link48, align 8
  br label %if.end58

do.body50:                                        ; preds = %if.end
  store ptr null, ptr %destroyed, align 8
  br label %if.end58

if.else57:                                        ; preds = %entry, %cond.end
  %narenas = getelementptr inbounds i8, ptr %0, i64 8
  br label %if.end58

if.end58:                                         ; preds = %do.body50, %do.body17, %if.else57
  %arena_ind.0.in = phi ptr [ %narenas, %if.else57 ], [ %2, %do.body17 ], [ %2, %do.body50 ]
  %arena_ind.0 = load i32, ptr %arena_ind.0.in, align 8
  %conv = zext i32 %arena_ind.0 to i64
  %arenas.i = getelementptr inbounds i8, ptr %0, i64 24
  switch i32 %arena_ind.0, label %sw.default.i.i [
    i32 4096, label %arenas_i2a_impl.exit.i
    i32 4097, label %sw.bb2.i.i
  ]

sw.bb2.i.i:                                       ; preds = %if.end58
  br label %arenas_i2a_impl.exit.i

sw.default.i.i:                                   ; preds = %if.end58
  %add.i.i = add nuw nsw i64 %conv, 2
  %14 = and i64 %add.i.i, 4294967295
  br label %arenas_i2a_impl.exit.i

arenas_i2a_impl.exit.i:                           ; preds = %sw.default.i.i, %sw.bb2.i.i, %if.end58
  %a.0.i.i = phi i64 [ %14, %sw.default.i.i ], [ 1, %sw.bb2.i.i ], [ 0, %if.end58 ]
  %arrayidx.i = getelementptr inbounds [4097 x ptr], ptr %arenas.i, i64 0, i64 %a.0.i.i
  %15 = load ptr, ptr %arrayidx.i, align 8
  %cmp.i = icmp eq ptr %15, null
  br i1 %cmp.i, label %if.then.i, label %if.end62

if.then.i:                                        ; preds = %arenas_i2a_impl.exit.i
  %call4.i = tail call ptr @b0get() #14
  %call5.i = tail call ptr @base_alloc(ptr noundef %tsd, ptr noundef %call4.i, i64 noundef 38288, i64 noundef 8) #14
  %cmp6.i = icmp eq ptr %call5.i, null
  br i1 %cmp6.i, label %return, label %if.end.i

if.end.i:                                         ; preds = %if.then.i
  %astats.i = getelementptr inbounds i8, ptr %call5.i, i64 88
  %astats8.i = getelementptr inbounds i8, ptr %call5.i, i64 80
  store ptr %astats.i, ptr %astats8.i, align 8
  store i32 %arena_ind.0, ptr %call5.i, align 8
  %16 = load ptr, ptr @ctl_arenas, align 8
  %arenas9.i = getelementptr inbounds i8, ptr %16, i64 24
  switch i32 %arena_ind.0, label %sw.default.i12.i [
    i32 4096, label %arenas_i2a_impl.exit20.i
    i32 4097, label %sw.bb2.i10.i
  ]

sw.bb2.i10.i:                                     ; preds = %if.end.i
  br label %arenas_i2a_impl.exit20.i

sw.default.i12.i:                                 ; preds = %if.end.i
  %add.i15.i = add nuw nsw i64 %conv, 2
  %17 = and i64 %add.i15.i, 4294967295
  br label %arenas_i2a_impl.exit20.i

arenas_i2a_impl.exit20.i:                         ; preds = %sw.default.i12.i, %sw.bb2.i10.i, %if.end.i
  %a.0.i11.i = phi i64 [ %17, %sw.default.i12.i ], [ 1, %sw.bb2.i10.i ], [ 0, %if.end.i ]
  %arrayidx13.i = getelementptr inbounds [4097 x ptr], ptr %arenas9.i, i64 0, i64 %a.0.i11.i
  store ptr %call5.i, ptr %arrayidx13.i, align 8
  br label %if.end62

if.end62:                                         ; preds = %arenas_i2a_impl.exit20.i, %arenas_i2a_impl.exit.i
  %call64 = tail call ptr @arena_init(ptr noundef %tsd, i32 noundef %arena_ind.0, ptr noundef %config) #14
  %cmp65 = icmp eq ptr %call64, null
  br i1 %cmp65, label %return, label %if.end68

if.end68:                                         ; preds = %if.end62
  %18 = load ptr, ptr @ctl_arenas, align 8
  %narenas69 = getelementptr inbounds i8, ptr %18, i64 8
  %19 = load i32, ptr %narenas69, align 8
  %cmp70 = icmp eq i32 %arena_ind.0, %19
  br i1 %cmp70, label %if.then72, label %return

if.then72:                                        ; preds = %if.end68
  %inc = add i32 %arena_ind.0, 1
  store i32 %inc, ptr %narenas69, align 8
  br label %return

return:                                           ; preds = %if.then.i, %if.end68, %if.then72, %if.end62
  %retval.0 = phi i32 [ -1, %if.end62 ], [ %arena_ind.0, %if.then72 ], [ %arena_ind.0, %if.end68 ], [ -1, %if.then.i ]
  ret i32 %retval.0
}